(dp1
S'layout'
p2
(ilayout
Layout
p3
(dp4
S'capsules'
p5
(lp6
(I1
I1
tp7
a(I9
I3
tp8
a(I10
I3
tp9
a(I11
I3
tp10
a(I1
I7
tp11
a(I18
I7
tp12
asS'numGhosts'
p13
I3
sS'food'
p14
(igame
Grid
p15
(dp16
S'CELLS_PER_INT'
p17
I30
sS'width'
p18
I20
sS'data'
p19
(lp20
(lp21
I00
aI00
aI00
aI00
aI00
aI00
aI00
aI00
aI00
aa(lp22
I00
aI00
aI01
aI01
aI01
aI01
aI01
aI00
aI00
aa(lp23
I00
aI00
aI00
aI00
aI00
aI01
aI00
aI01
aI00
aa(lp24
I00
aI01
aI01
aI01
aI01
aI01
aI00
aI01
aI00
aa(lp25
I00
aI01
aI00
aI01
aI00
aI01
aI01
aI01
aI00
aa(lp26
I00
aI01
aI00
aI01
aI00
aI01
aI00
aI00
aI00
aa(lp27
I00
aI01
aI01
aI01
aI01
aI01
aI01
aI01
aI00
aa(lp28
I00
aI01
aI00
aI00
aI00
aI00
aI00
aI01
aI00
aa(lp29
I00
aI01
aI00
aI00
aI00
aI00
aI00
aI01
aI00
aa(lp30
I00
aI00
aI00
aI00
aI00
aI00
aI01
aI01
aI00
aa(lp31
I00
aI01
aI00
aI00
aI00
aI00
aI01
aI01
aI00
aa(lp32
I00
aI01
aI00
aI00
aI00
aI00
aI00
aI01
aI00
aa(lp33
I00
aI01
aI00
aI00
aI00
aI00
aI00
aI01
aI00
aa(lp34
I00
aI01
aI01
aI01
aI01
aI01
aI01
aI01
aI00
aa(lp35
I00
aI00
aI00
aI00
aI00
aI01
aI00
aI00
aI00
aa(lp36
I00
aI01
aI01
aI01
aI00
aI01
aI01
aI01
aI00
aa(lp37
I00
aI01
aI00
aI01
aI01
aI01
aI00
aI01
aI00
aa(lp38
I00
aI01
aI00
aI00
aI00
aI01
aI00
aI01
aI00
aa(lp39
I00
aI01
aI01
aI01
aI01
aI01
aI01
aI00
aI00
aa(lp40
I00
aI00
aI00
aI00
aI00
aI00
aI00
aI00
aI00
aasS'height'
p41
I9
sbsS'agentPositions'
p42
(lp43
(I01
(I9
I1
tp44
tp45
a(I00
(I8
I5
tp46
tp47
a(I00
(I10
I5
tp48
tp49
a(I00
(I11
I5
tp50
tp51
asg41
I9
sg18
I20
sS'walls'
p52
(igame
Grid
p53
(dp54
g17
I30
sg18
I20
sg19
(lp55
(lp56
I01
aI01
aI01
aI01
aI01
aI01
aI01
aI01
aI01
aa(lp57
I01
aI00
aI00
aI00
aI00
aI00
aI00
aI00
aI01
aa(lp58
I01
aI01
aI01
aI01
aI01
aI00
aI01
aI00
aI01
aa(lp59
I01
aI00
aI00
aI00
aI00
aI00
aI01
aI00
aI01
aa(lp60
I01
aI00
aI01
aI00
aI01
aI00
aI00
aI00
aI01
aa(lp61
I01
aI00
aI01
aI00
aI01
aI00
aI01
aI01
aI01
aa(lp62
I01
aI00
aI00
aI00
aI00
aI00
aI00
aI00
aI01
aa(lp63
I01
aI00
aI01
aI01
aI01
aI00
aI01
aI00
aI01
aa(lp64
I01
aI00
aI00
aI00
aI01
aI00
aI01
aI00
aI01
aa(lp65
I01
aI00
aI01
aI00
aI00
aI00
aI00
aI00
aI01
aa(lp66
I01
aI00
aI01
aI00
aI01
aI00
aI00
aI00
aI01
aa(lp67
I01
aI00
aI00
aI00
aI01
aI00
aI01
aI00
aI01
aa(lp68
I01
aI00
aI01
aI01
aI01
aI01
aI01
aI00
aI01
aa(lp69
I01
aI00
aI00
aI00
aI00
aI00
aI00
aI00
aI01
aa(lp70
I01
aI01
aI01
aI01
aI01
aI00
aI01
aI01
aI01
aa(lp71
I01
aI00
aI00
aI00
aI01
aI00
aI00
aI00
aI01
aa(lp72
I01
aI00
aI01
aI00
aI00
aI00
aI01
aI00
aI01
aa(lp73
I01
aI00
aI01
aI01
aI01
aI00
aI01
aI00
aI01
aa(lp74
I01
aI00
aI00
aI00
aI00
aI00
aI00
aI00
aI01
aa(lp75
I01
aI01
aI01
aI01
aI01
aI01
aI01
aI01
aI01
aasg41
I9
sbsS'layoutText'
p76
(lp77
S'%%%%%%%%%%%%%%%%%%%%'
p78
aS'%o...%........%...o%'
p79
aS'%.%%.%.%%..%%.%.%%.%'
p80
aS'%...... G GG%......%'
p81
aS'%.%.%%.%% %%%.%%.%.%'
p82
aS'%.%....% ooo%.%..%.%'
p83
aS'%.%.%%.% %% %.%.%%.%'
p84
aS'%o%......P....%....%'
p85
aS'%%%%%%%%%%%%%%%%%%%%'
p86
asbsS'actions'
p87
(lp88
(I0
S'East'
p89
tp90
a(I1
g89
tp91
a(I2
g89
tp92
a(I3
S'West'
p93
tp94
a(I0
g89
tp95
a(I1
S'South'
p96
tp97
a(I2
g93
tp98
a(I3
S'North'
p99
tp100
a(I0
g99
tp101
a(I1
g96
tp102
a(I2
g99
tp103
a(I3
g99
tp104
a(I0
g99
tp105
a(I1
g93
tp106
a(I2
g99
tp107
a(I3
g93
tp108
a(I0
g96
tp109
a(I1
g93
tp110
a(I2
g99
tp111
a(I3
g93
tp112
a(I0
g96
tp113
a(I1
g96
tp114
a(I2
g93
tp115
a(I3
g93
tp116
a(I0
g93
tp117
a(I1
g96
tp118
a(I2
g93
tp119
a(I3
g93
tp120
a(I0
g93
tp121
a(I1
g96
tp122
a(I2
g93
tp123
a(I3
g93
tp124
a(I0
g93
tp125
a(I1
g93
tp126
a(I2
g93
tp127
a(I3
g93
tp128
a(I0
g89
tp129
a(I1
g93
tp130
a(I2
g93
tp131
a(I3
g93
tp132
a(I0
g89
tp133
a(I1
g96
tp134
a(I2
g93
tp135
a(I3
g93
tp136
a(I0
g89
tp137
a(I1
g96
tp138
a(I2
g93
tp139
a(I3
g96
tp140
a(I0
g89
tp141
a(I1
g96
tp142
a(I2
g93
tp143
a(I3
g96
tp144
a(I0
g89
tp145
a(I1
g96
tp146
a(I2
g96
tp147
a(I3
g96
tp148
a(I0
g99
tp149
a(I1
g89
tp150
a(I2
g96
tp151
a(I3
g96
tp152
a(I0
g99
tp153
a(I1
g89
tp154
a(I2
g96
tp155
a(I3
g93
tp156
a(I0
g99
tp157
a(I1
g99
tp158
a(I2
g96
tp159
a(I3
g93
tp160
a(I0
g99
tp161
a(I1
g99
tp162
a(I2
g96
tp163
a(I3
g93
tp164
a(I0
g99
tp165
a(I1
g89
tp166
a(I2
g96
tp167
a(I3
g93
tp168
a(I0
g99
tp169
a(I1
g89
tp170
a(I2
g96
tp171
a(I3
g93
tp172
a(I0
g93
tp173
a(I1
g89
tp174
a(I2
g96
tp175
a(I3
g93
tp176
a(I0
g93
tp177
a(I1
g96
tp178
a(I2
g96
tp179
a(I3
g93
tp180
a(I0
g93
tp181
a(I1
g96
tp182
a(I2
g96
tp183
a(I3
g93
tp184
a(I0
g93
tp185
a(I1
g93
tp186
a(I2
g96
tp187
a(I3
g93
tp188
a(I0
g93
tp189
a(I1
g93
tp190
a(I2
g96
tp191
a(I3
g93
tp192
a(I0
g93
tp193
a(I1
g93
tp194
a(I2
g93
tp195
a(I3
g96
tp196
a(I0
g93
tp197
a(I1
g93
tp198
a(I2
g93
tp199
a(I3
g96
tp200
a(I0
g96
tp201
a(I1
g93
tp202
a(I2
g93
tp203
a(I3
g96
tp204
a(I0
g96
tp205
a(I1
g99
tp206
a(I2
g93
tp207
a(I3
g96
tp208
a(I0
g93
tp209
a(I1
g99
tp210
a(I2
g93
tp211
a(I3
g96
tp212
a(I0
g93
tp213
a(I1
g93
tp214
a(I2
g93
tp215
a(I3
g96
tp216
a(I0
g93
tp217
a(I1
g93
tp218
a(I2
g99
tp219
a(I3
g96
tp220
a(I0
g93
tp221
a(I1
g93
tp222
a(I2
g99
tp223
a(I3
g96
tp224
a(I0
g93
tp225
a(I1
g99
tp226
a(I2
g99
tp227
a(I3
g99
tp228
a(I0
g96
tp229
a(I1
g99
tp230
a(I2
g99
tp231
a(I3
g99
tp232
a(I0
g96
tp233
a(I1
g89
tp234
a(I2
g89
tp235
a(I3
g99
tp236
a(I0
g96
tp237
a(I1
g89
tp238
a(I2
g89
tp239
a(I3
g93
tp240
a(I0
g99
tp241
a(I1
g89
tp242
a(I2
g89
tp243
a(I3
g93
tp244
a(I0
g99
tp245
a(I1
g96
tp246
a(I2
g89
tp247
a(I3
g93
tp248
a(I0
g99
tp249
a(I1
g96
tp250
a(I2
g89
tp251
a(I3
g93
tp252
a(I0
g99
tp253
a(I1
g93
tp254
a(I2
g89
tp255
a(I3
g93
tp256
a(I0
g99
tp257
a(I1
g93
tp258
a(I2
g96
tp259
a(I3
g96
tp260
a(I0
g96
tp261
a(I1
g93
tp262
a(I2
g96
tp263
a(I3
g96
tp264
a(I0
g96
tp265
a(I1
g93
tp266
a(I2
g96
tp267
a(I3
g96
tp268
a(I0
g89
tp269
a(I1
g93
tp270
a(I2
g96
tp271
a(I3
g96
tp272
a(I0
g89
tp273
a(I1
g96
tp274
a(I2
g89
tp275
a(I3
g96
tp276
a(I0
g96
tp277
a(I1
g96
tp278
a(I2
g89
tp279
a(I3
g96
tp280
a(I0
g96
tp281
a(I1
g96
tp282
a(I2
g89
tp283
a(I3
g96
tp284
a(I0
g96
tp285
a(I1
g93
tp286
a(I2
g89
tp287
a(I3
g96
tp288
a(I0
g96
tp289
a(I1
g93
tp290
a(I2
g89
tp291
a(I3
g89
tp292
a(I0
g89
tp293
a(I1
g93
tp294
a(I2
g89
tp295
a(I3
g89
tp296
a(I0
g89
tp297
a(I1
g93
tp298
a(I2
g89
tp299
a(I3
g89
tp300
a(I0
g89
tp301
a(I1
g99
tp302
a(I2
g89
tp303
a(I3
g89
tp304
a(I0
g89
tp305
a(I1
g99
tp306
a(I2
g89
tp307
a(I3
g89
tp308
a(I0
g89
tp309
a(I1
g93
tp310
a(I2
g89
tp311
a(I3
g93
tp312
a(I0
g89
tp313
a(I1
g93
tp314
a(I2
g89
tp315
a(I3
g99
tp316
a(I0
g89
tp317
a(I1
g93
tp318
a(I2
g89
tp319
a(I3
g93
tp320
a(I0
g89
tp321
a(I1
g96
tp322
a(I2
g89
tp323
a(I3
g96
tp324
a(I0
g89
tp325
a(I1
g96
tp326
a(I2
g89
tp327
a(I3
g93
tp328
a(I0
g93
tp329
a(I1
g96
tp330
a(I2
g93
tp331
a(I3
g93
tp332
a(I0
g99
tp333
a(I1
g96
tp334
a(I2
g99
tp335
a(I3
g93
tp336
a(I0
g99
tp337
a(I1
g96
tp338
a(I2
g99
tp339
a(I3
g96
tp340
a(I0
S'Stop'
p341
tp342
a(I1
g96
tp343
a(I2
g89
tp344
a(I3
g96
tp345
a(I0
g341
tp346
a(I1
g99
tp347
a(I2
g89
tp348
a(I3
g96
tp349
a(I0
g341
tp350
a(I1
g99
tp351
a(I2
g89
tp352
a(I3
g96
tp353
a(I0
g341
tp354
a(I1
g99
tp355
a(I2
g96
tp356
a(I3
g89
tp357
a(I0
g341
tp358
a(I1
g99
tp359
a(I2
g96
tp360
a(I3
g89
tp361
a(I0
g341
tp362
a(I1
g89
tp363
a(I2
g96
tp364
a(I3
g99
tp365
a(I0
g341
tp366
a(I1
g89
tp367
a(I2
g96
tp368
a(I3
g99
tp369
a(I0
g93
tp370
a(I1
g89
tp371
a(I2
g96
tp372
a(I3
g89
tp373
a(I0
g89
tp374
a(I1
g89
tp375
a(I2
g96
tp376
a(I3
g89
tp377
a(I0
g96
tp378
a(I1
g99
tp379
a(I2
g96
tp380
a(I3
g99
tp381
a(I0
g96
tp382
a(I1
g99
tp383
a(I2
g96
tp384
a(I3
g99
tp385
a(I0
g89
tp386
a(I1
g99
tp387
a(I2
g93
tp388
a(I3
g99
tp389
a(I0
g93
tp390
a(I1
g99
tp391
a(I2
g99
tp392
a(I3
g99
tp393
a(I0
g93
tp394
a(I1
g93
tp395
a(I2
g99
tp396
a(I3
g89
tp397
a(I0
g93
tp398
a(I1
g93
tp399
a(I2
g93
tp400
a(I3
g89
tp401
a(I0
g93
tp402
a(I1
g93
tp403
a(I2
g93
tp404
a(I3
g89
tp405
a(I0
g93
tp406
a(I1
g93
tp407
a(I2
g93
tp408
a(I3
g89
tp409
a(I0
g93
tp410
a(I1
g93
tp411
a(I2
g93
tp412
a(I3
g93
tp413
a(I0
g99
tp414
a(I1
g93
tp415
a(I2
g96
tp416
a(I3
g93
tp417
a(I0
g99
tp418
a(I1
g96
tp419
a(I2
g96
tp420
a(I3
g99
tp421
a(I0
g93
tp422
a(I1
g96
tp423
a(I2
g93
tp424
a(I3
g99
tp425
a(I0
g93
tp426
a(I1
g96
tp427
a(I2
g93
tp428
a(I3
g99
tp429
a(I0
g89
tp430
a(I1
g96
tp431
a(I2
g99
tp432
a(I3
g99
tp433
a(I0
g93
tp434
a(I1
g89
tp435
a(I2
g99
tp436
a(I3
g89
tp437
a(I0
g93
tp438
a(I1
g89
tp439
a(I2
g93
tp440
a(I3
g89
tp441
a(I0
g99
tp442
a(I1
g89
tp443
a(I2
g93
tp444
a(I3
g89
tp445
a(I0
g99
tp446
a(I1
g93
tp447
a(I2
g93
tp448
a(I3
g89
tp449
a(I0
g89
tp450
a(I1
g93
tp451
a(I2
g96
tp452
a(I3
g89
tp453
a(I0
g99
tp454
a(I1
g93
tp455
a(I2
g96
tp456
a(I3
g89
tp457
a(I0
g99
tp458
a(I1
g93
tp459
a(I2
g89
tp460
a(I3
g96
tp461
a(I0
g93
tp462
a(I1
g93
tp463
a(I2
g89
tp464
a(I3
g96
tp465
a(I0
g93
tp466
a(I1
g93
tp467
a(I2
g89
tp468
a(I3
g96
tp469
a(I0
g93
tp470
a(I1
g93
tp471
a(I2
g99
tp472
a(I3
g96
tp473
a(I0
g89
tp474
a(I1
g99
tp475
a(I2
g99
tp476
a(I3
g89
tp477
a(I0
g89
tp478
a(I1
g99
tp479
a(I2
g93
tp480
as.