(dp1
S'layout'
p2
(ilayout
Layout
p3
(dp4
S'capsules'
p5
(lp6
(I1
I1
tp7
a(I9
I3
tp8
a(I10
I3
tp9
a(I11
I3
tp10
a(I1
I7
tp11
a(I18
I7
tp12
asS'numGhosts'
p13
I3
sS'food'
p14
(igame
Grid
p15
(dp16
S'CELLS_PER_INT'
p17
I30
sS'width'
p18
I20
sS'data'
p19
(lp20
(lp21
I00
aI00
aI00
aI00
aI00
aI00
aI00
aI00
aI00
aa(lp22
I00
aI00
aI01
aI01
aI01
aI01
aI01
aI00
aI00
aa(lp23
I00
aI00
aI00
aI00
aI00
aI01
aI00
aI01
aI00
aa(lp24
I00
aI01
aI01
aI01
aI01
aI01
aI00
aI01
aI00
aa(lp25
I00
aI01
aI00
aI01
aI00
aI01
aI01
aI01
aI00
aa(lp26
I00
aI01
aI00
aI01
aI00
aI01
aI00
aI00
aI00
aa(lp27
I00
aI01
aI01
aI01
aI01
aI01
aI01
aI01
aI00
aa(lp28
I00
aI01
aI00
aI00
aI00
aI00
aI00
aI01
aI00
aa(lp29
I00
aI01
aI00
aI00
aI00
aI00
aI00
aI01
aI00
aa(lp30
I00
aI00
aI00
aI00
aI00
aI00
aI01
aI01
aI00
aa(lp31
I00
aI01
aI00
aI00
aI00
aI00
aI01
aI01
aI00
aa(lp32
I00
aI01
aI00
aI00
aI00
aI00
aI00
aI01
aI00
aa(lp33
I00
aI01
aI00
aI00
aI00
aI00
aI00
aI01
aI00
aa(lp34
I00
aI01
aI01
aI01
aI01
aI01
aI01
aI01
aI00
aa(lp35
I00
aI00
aI00
aI00
aI00
aI01
aI00
aI00
aI00
aa(lp36
I00
aI01
aI01
aI01
aI00
aI01
aI01
aI01
aI00
aa(lp37
I00
aI01
aI00
aI01
aI01
aI01
aI00
aI01
aI00
aa(lp38
I00
aI01
aI00
aI00
aI00
aI01
aI00
aI01
aI00
aa(lp39
I00
aI01
aI01
aI01
aI01
aI01
aI01
aI00
aI00
aa(lp40
I00
aI00
aI00
aI00
aI00
aI00
aI00
aI00
aI00
aasS'height'
p41
I9
sbsS'agentPositions'
p42
(lp43
(I01
(I9
I1
tp44
tp45
a(I00
(I8
I5
tp46
tp47
a(I00
(I10
I5
tp48
tp49
a(I00
(I11
I5
tp50
tp51
asg41
I9
sg18
I20
sS'walls'
p52
(igame
Grid
p53
(dp54
g17
I30
sg18
I20
sg19
(lp55
(lp56
I01
aI01
aI01
aI01
aI01
aI01
aI01
aI01
aI01
aa(lp57
I01
aI00
aI00
aI00
aI00
aI00
aI00
aI00
aI01
aa(lp58
I01
aI01
aI01
aI01
aI01
aI00
aI01
aI00
aI01
aa(lp59
I01
aI00
aI00
aI00
aI00
aI00
aI01
aI00
aI01
aa(lp60
I01
aI00
aI01
aI00
aI01
aI00
aI00
aI00
aI01
aa(lp61
I01
aI00
aI01
aI00
aI01
aI00
aI01
aI01
aI01
aa(lp62
I01
aI00
aI00
aI00
aI00
aI00
aI00
aI00
aI01
aa(lp63
I01
aI00
aI01
aI01
aI01
aI00
aI01
aI00
aI01
aa(lp64
I01
aI00
aI00
aI00
aI01
aI00
aI01
aI00
aI01
aa(lp65
I01
aI00
aI01
aI00
aI00
aI00
aI00
aI00
aI01
aa(lp66
I01
aI00
aI01
aI00
aI01
aI00
aI00
aI00
aI01
aa(lp67
I01
aI00
aI00
aI00
aI01
aI00
aI01
aI00
aI01
aa(lp68
I01
aI00
aI01
aI01
aI01
aI01
aI01
aI00
aI01
aa(lp69
I01
aI00
aI00
aI00
aI00
aI00
aI00
aI00
aI01
aa(lp70
I01
aI01
aI01
aI01
aI01
aI00
aI01
aI01
aI01
aa(lp71
I01
aI00
aI00
aI00
aI01
aI00
aI00
aI00
aI01
aa(lp72
I01
aI00
aI01
aI00
aI00
aI00
aI01
aI00
aI01
aa(lp73
I01
aI00
aI01
aI01
aI01
aI00
aI01
aI00
aI01
aa(lp74
I01
aI00
aI00
aI00
aI00
aI00
aI00
aI00
aI01
aa(lp75
I01
aI01
aI01
aI01
aI01
aI01
aI01
aI01
aI01
aasg41
I9
sbsS'layoutText'
p76
(lp77
S'%%%%%%%%%%%%%%%%%%%%'
p78
aS'%o...%........%...o%'
p79
aS'%.%%.%.%%..%%.%.%%.%'
p80
aS'%...... G GG%......%'
p81
aS'%.%.%%.%% %%%.%%.%.%'
p82
aS'%.%....% ooo%.%..%.%'
p83
aS'%.%.%%.% %% %.%.%%.%'
p84
aS'%o%......P....%....%'
p85
aS'%%%%%%%%%%%%%%%%%%%%'
p86
asbsS'actions'
p87
(lp88
(I0
S'East'
p89
tp90
a(I1
g89
tp91
a(I2
S'West'
p92
tp93
a(I3
g92
tp94
a(I0
g89
tp95
a(I1
g89
tp96
a(I2
S'South'
p97
tp98
a(I3
g92
tp99
a(I0
S'North'
p100
tp101
a(I1
g100
tp102
a(I2
g97
tp103
a(I3
g97
tp104
a(I0
g100
tp105
a(I1
g100
tp106
a(I2
g92
tp107
a(I3
g97
tp108
a(I0
g92
tp109
a(I1
g100
tp110
a(I2
g92
tp111
a(I3
g97
tp112
a(I0
g92
tp113
a(I1
g92
tp114
a(I2
g97
tp115
a(I3
g92
tp116
a(I0
g92
tp117
a(I1
g92
tp118
a(I2
g92
tp119
a(I3
g92
tp120
a(I0
g97
tp121
a(I1
g97
tp122
a(I2
g92
tp123
a(I3
g92
tp124
a(I0
g97
tp125
a(I1
g97
tp126
a(I2
g92
tp127
a(I3
g92
tp128
a(I0
g92
tp129
a(I1
g89
tp130
a(I2
g92
tp131
a(I3
g92
tp132
a(I0
g92
tp133
a(I1
g89
tp134
a(I2
g97
tp135
a(I3
g97
tp136
a(I0
g92
tp137
a(I1
g100
tp138
a(I2
g97
tp139
a(I3
g97
tp140
a(I0
g92
tp141
a(I1
g100
tp142
a(I2
g97
tp143
a(I3
g92
tp144
a(I0
g92
tp145
a(I1
g89
tp146
a(I2
g97
tp147
a(I3
g92
tp148
a(I0
g100
tp149
a(I1
g89
tp150
a(I2
g92
tp151
a(I3
g92
tp152
a(I0
g100
tp153
as.